target datalayout = "e-m:e-p270:32:32-p271:32:32-p272:64:64-i64:64-i128:128-f80:128-n8:16:32:64-S128"
target triple = "x86_64-unknown-linux-gnu"

%"class.node::MutexBase" = type { %union.pthread_mutex_t }
%union.pthread_mutex_t = type { %struct.__pthread_mutex_s }
%struct.__pthread_mutex_s = type { i32, i32, i32, i32, i32, i16, i16, %struct.__pthread_internal_list }
%struct.__pthread_internal_list = type { ptr, ptr }
%"class.v8::IndirectHandleBase" = type { ptr }
%"class.node::MutexBase<node::LibuvMutexTraits>::ScopedLock" = type { ptr }
%"class.v8::Local.409" = type { %"class.v8::LocalBase.410" }
%"class.v8::LocalBase.410" = type { %"class.v8::IndirectHandleBase" }
%"class.v8::ReturnValue" = type { ptr }

@_ZN4node6cryptoL10fips_mutexE = internal global %"class.node::MutexBase" zeroinitializer, align 8
@_ZN4node11per_process17cli_options_mutexE = external global %"class.node::MutexBase", align 8

; Function Attrs: mustprogress nounwind uwtable
define linkonce_odr dso_local void @_ZN4node16LibuvMutexTraits12mutex_unlockEP15pthread_mutex_t(ptr noundef %mutex) #4 comdat align 2 {
entry:
  %mutex.addr = alloca ptr, align 8
  store ptr %mutex, ptr %mutex.addr, align 8
  %0 = load ptr, ptr %mutex.addr, align 8
  call void @uv_mutex_unlock(ptr noundef %0)
  ret void
}

; Function Attrs: mustprogress nounwind uwtable
define linkonce_odr dso_local void @_ZN4node16LibuvMutexTraits10mutex_lockEP15pthread_mutex_t(ptr noundef %mutex) #4 comdat align 2 {
entry:
  %mutex.addr = alloca ptr, align 8
  store ptr %mutex, ptr %mutex.addr, align 8
  %0 = load ptr, ptr %mutex.addr, align 8
  call void @uv_mutex_lock(ptr noundef %0)
  ret void
}

; Function Attrs: mustprogress nounwind uwtable
define linkonce_odr dso_local void @_ZN4node9MutexBaseINS_16LibuvMutexTraitsEE10ScopedLockD2Ev(ptr noundef nonnull align 8 dereferenceable(8) %this) unnamed_addr #4 comdat align 2 {
entry:
  %this.addr = alloca ptr, align 8
  store ptr %this, ptr %this.addr, align 8
  %this1 = load ptr, ptr %this.addr, align 8
  %mutex_ = getelementptr inbounds %"class.node::MutexBase<node::LibuvMutexTraits>::ScopedLock", ptr %this1, i32 0, i32 0
  %0 = load ptr, ptr %mutex_, align 8
  %mutex_2 = getelementptr inbounds %"class.node::MutexBase", ptr %0, i32 0, i32 0
  call void @_ZN4node16LibuvMutexTraits12mutex_unlockEP15pthread_mutex_t(ptr noundef %mutex_2)
  ret void
}

; Function Attrs: mustprogress nounwind uwtable
define linkonce_odr dso_local void @_ZN4node9MutexBaseINS_16LibuvMutexTraitsEE10ScopedLockC2ERKS2_(ptr noundef nonnull align 8 dereferenceable(8) %this, ptr noundef nonnull align 8 dereferenceable(40) %mutex) unnamed_addr #4 comdat align 2 {
entry:
  %this.addr = alloca ptr, align 8
  %mutex.addr = alloca ptr, align 8
  store ptr %this, ptr %this.addr, align 8
  store ptr %mutex, ptr %mutex.addr, align 8
  %this1 = load ptr, ptr %this.addr, align 8
  %mutex_ = getelementptr inbounds %"class.node::MutexBase<node::LibuvMutexTraits>::ScopedLock", ptr %this1, i32 0, i32 0
  %0 = load ptr, ptr %mutex.addr, align 8
  store ptr %0, ptr %mutex_, align 8
  %mutex_2 = getelementptr inbounds %"class.node::MutexBase<node::LibuvMutexTraits>::ScopedLock", ptr %this1, i32 0, i32 0
  %1 = load ptr, ptr %mutex_2, align 8
  %mutex_3 = getelementptr inbounds %"class.node::MutexBase", ptr %1, i32 0, i32 0
  call void @_ZN4node16LibuvMutexTraits10mutex_lockEP15pthread_mutex_t(ptr noundef %mutex_3)
  ret void
}

; Function Attrs: mustprogress nounwind uwtable
define dso_local void @_ZN4node6crypto13GetFipsCryptoERKN2v820FunctionCallbackInfoINS1_5ValueEEE(ptr noundef nonnull align 8 dereferenceable(20) %args) #4 {
entry:
  %value.addr.i17 = alloca i32, align 4
  %value.addr.i15 = alloca i64, align 8
  %isolate.addr.i15.i = alloca ptr, align 8
  %index.addr.i16.i = alloca i32, align 4
  %addr.i.i = alloca i64, align 8
  %this.addr.i13.i = alloca ptr, align 8
  %isolate.addr.i.i = alloca ptr, align 8
  %index.addr.i.i = alloca i32, align 4
  %this.addr.i10.i = alloca ptr, align 8
  %this.addr.i8.i = alloca ptr, align 8
  %this.addr.i.i = alloca ptr, align 8
  %handle.i = alloca %"class.v8::Local.409", align 8
  %this.addr.i11 = alloca ptr, align 8
  %value.addr.i10 = alloca i32, align 4
  %value.addr.i = alloca i64, align 8
  %this.addr.i7 = alloca ptr, align 8
  %slot.addr.i = alloca ptr, align 8
  %this.addr.i4 = alloca ptr, align 8
  %this.addr.i2 = alloca ptr, align 8
  %i.addr.i = alloca i32, align 4
  %agg.tmp.i = alloca %"class.v8::Local.409", align 8
  %retval.i = alloca %"class.v8::ReturnValue", align 8
  %this.addr.i = alloca ptr, align 8
  %args.addr = alloca ptr, align 8
  %lock = alloca %"class.node::MutexBase<node::LibuvMutexTraits>::ScopedLock", align 8
  %fips_lock = alloca %"class.node::MutexBase<node::LibuvMutexTraits>::ScopedLock", align 8
  %ref.tmp = alloca %"class.v8::ReturnValue", align 8
  store ptr %args, ptr %args.addr, align 8
  call void @_ZN4node9MutexBaseINS_16LibuvMutexTraitsEE10ScopedLockC2ERKS2_(ptr noundef nonnull align 8 dereferenceable(8) %lock, ptr noundef nonnull align 8 dereferenceable(40) @_ZN4node11per_process17cli_options_mutexE)
  call void @_ZN4node9MutexBaseINS_16LibuvMutexTraitsEE10ScopedLockC2ERKS2_(ptr noundef nonnull align 8 dereferenceable(8) %fips_lock, ptr noundef nonnull align 8 dereferenceable(40) @_ZN4node6cryptoL10fips_mutexE)
  %0 = load ptr, ptr %args.addr, align 8
  store ptr %0, ptr %this.addr.i, align 8
  %this1.i = load ptr, ptr %this.addr.i, align 8
  %1 = load ptr, ptr %this1.i, align 8
  %arrayidx.i = getelementptr inbounds i64, ptr %1, i64 3
  store ptr %retval.i, ptr %this.addr.i7, align 8
  store ptr %arrayidx.i, ptr %slot.addr.i, align 8
  %this1.i8 = load ptr, ptr %this.addr.i7, align 8
  %2 = load ptr, ptr %slot.addr.i, align 8
  store ptr %2, ptr %this1.i8, align 8
  %3 = load ptr, ptr %retval.i, align 8
  %coerce.dive = getelementptr inbounds %"class.v8::ReturnValue", ptr %ref.tmp, i32 0, i32 0
  store ptr %3, ptr %coerce.dive, align 8
  %call1 = call i32 @EVP_default_properties_is_fips_enabled(ptr noundef null)
  %tobool = icmp ne i32 %call1, 0
  %cond = select i1 %tobool, i32 1, i32 0
  store ptr %ref.tmp, ptr %this.addr.i2, align 8
  store i32 %cond, ptr %i.addr.i, align 4
  %this1.i3 = load ptr, ptr %this.addr.i2, align 8
  %4 = load i32, ptr %i.addr.i, align 4
  %conv.i = sext i32 %4 to i64
  store i64 %conv.i, ptr %value.addr.i, align 8
  %5 = load i64, ptr %value.addr.i, align 8
  store i64 %5, ptr %value.addr.i15, align 8
  %6 = load i64, ptr %value.addr.i15, align 8
  %7 = load i64, ptr %value.addr.i15, align 8
  %conv.i16 = trunc i64 %7 to i32
  %conv1.i = sext i32 %conv.i16 to i64
  %cmp.i = icmp eq i64 %6, %conv1.i
  br i1 %cmp.i, label %if.then.i, label %if.end.i

if.then.i:                                        ; preds = %entry
  %8 = load i32, ptr %i.addr.i, align 4
  store i32 %8, ptr %value.addr.i10, align 4
  %9 = load i32, ptr %value.addr.i10, align 4
  store i32 %9, ptr %value.addr.i17, align 4
  %10 = load i32, ptr %value.addr.i17, align 4
  %conv.i18 = sext i32 %10 to i64
  %shl.i = shl i64 %conv.i18, 32
  %11 = load ptr, ptr %this1.i3, align 8
  store i64 %shl.i, ptr %11, align 8
  br label %_ZN2v811ReturnValueINS_5ValueEE3SetEi.exit

if.end.i:                                         ; preds = %entry
  store ptr %this1.i3, ptr %this.addr.i4, align 8
  %this1.i5 = load ptr, ptr %this.addr.i4, align 8
  %12 = load ptr, ptr %this1.i5, align 8
  %arrayidx.i6 = getelementptr inbounds i64, ptr %12, i64 -2
  %13 = load ptr, ptr %arrayidx.i6, align 8
  %14 = load i32, ptr %i.addr.i, align 4
  %call6.i = call ptr @_ZN2v87Integer3NewEPNS_7IsolateEi(ptr noundef %13, i32 noundef %14) #3
  store ptr %call6.i, ptr %agg.tmp.i, align 8
  %15 = load ptr, ptr %agg.tmp.i, align 8
  store ptr %15, ptr %handle.i, align 8
  store ptr %this1.i3, ptr %this.addr.i11, align 8
  %this3.i = load ptr, ptr %this.addr.i11, align 8
  store ptr %handle.i, ptr %this.addr.i.i, align 8
  %this1.i.i = load ptr, ptr %this.addr.i.i, align 8
  %16 = load ptr, ptr %this1.i.i, align 8
  %cmp.i.i = icmp eq ptr %16, null
  br i1 %cmp.i.i, label %if.then.i14, label %if.else.i

if.then.i14:                                      ; preds = %if.end.i
  store ptr %this3.i, ptr %this.addr.i8.i, align 8
  %this1.i9.i = load ptr, ptr %this.addr.i8.i, align 8
  store ptr %this1.i9.i, ptr %this.addr.i13.i, align 8
  %this1.i14.i = load ptr, ptr %this.addr.i13.i, align 8
  %17 = load ptr, ptr %this1.i14.i, align 8
  %arrayidx.i.i = getelementptr inbounds i64, ptr %17, i64 -2
  %18 = load ptr, ptr %arrayidx.i.i, align 8
  store ptr %18, ptr %isolate.addr.i.i, align 8
  store i32 5, ptr %index.addr.i.i, align 4
  %19 = load ptr, ptr %isolate.addr.i.i, align 8
  %20 = load i32, ptr %index.addr.i.i, align 4
  store ptr %19, ptr %isolate.addr.i15.i, align 8
  store i32 %20, ptr %index.addr.i16.i, align 4
  %21 = load ptr, ptr %isolate.addr.i15.i, align 8
  %22 = ptrtoint ptr %21 to i64
  %add.i.i = add i64 %22, 576
  %23 = load i32, ptr %index.addr.i16.i, align 4
  %mul.i.i = mul nsw i32 %23, 8
  %conv.i.i = sext i32 %mul.i.i to i64
  %add1.i.i = add i64 %add.i.i, %conv.i.i
  store i64 %add1.i.i, ptr %addr.i.i, align 8
  %24 = load i64, ptr %addr.i.i, align 8
  %25 = inttoptr i64 %24 to ptr
  %26 = load i64, ptr %25, align 8
  %27 = load ptr, ptr %this3.i, align 8
  store i64 %26, ptr %27, align 8
  br label %_ZN2v811ReturnValueINS_5ValueEE3SetINS_7IntegerEEEvNS_5LocalIT_EE.exit

if.else.i:                                        ; preds = %if.end.i
  store ptr %handle.i, ptr %this.addr.i10.i, align 8
  %this1.i11.i = load ptr, ptr %this.addr.i10.i, align 8
  %28 = load ptr, ptr %this1.i11.i, align 8
  %29 = load i64, ptr %28, align 8
  %30 = load ptr, ptr %this3.i, align 8
  store i64 %29, ptr %30, align 8
  br label %_ZN2v811ReturnValueINS_5ValueEE3SetINS_7IntegerEEEvNS_5LocalIT_EE.exit

_ZN2v811ReturnValueINS_5ValueEE3SetINS_7IntegerEEEvNS_5LocalIT_EE.exit: ; preds = %if.else.i, %if.then.i14
  br label %_ZN2v811ReturnValueINS_5ValueEE3SetEi.exit

_ZN2v811ReturnValueINS_5ValueEE3SetEi.exit:       ; preds = %_ZN2v811ReturnValueINS_5ValueEE3SetINS_7IntegerEEEvNS_5LocalIT_EE.exit, %if.then.i
  call void @_ZN4node9MutexBaseINS_16LibuvMutexTraitsEE10ScopedLockD2Ev(ptr noundef nonnull align 8 dereferenceable(8) %fips_lock) #3
  call void @_ZN4node9MutexBaseINS_16LibuvMutexTraitsEE10ScopedLockD2Ev(ptr noundef nonnull align 8 dereferenceable(8) %lock) #3
  ret void
}