; Function Attrs: mustprogress nounwind uwtable
define dso_local void @_ZN4node6crypto13GetFipsCryptoERKN2v820FunctionCallbackInfoINS1_5ValueEEE(ptr nocapture noundef nonnull readonly align 8 dereferenceable(20) %args) #4 {
entry:
  tail call void @uv_mutex_lock(ptr noundef nonnull @_ZN4node11per_process17cli_options_mutexE) #25
  tail call void @uv_mutex_lock(ptr noundef nonnull @_ZN4node6cryptoL10fips_mutexE) #25
  %0 = load ptr, ptr %args, align 8
  %call1 = tail call i32 @EVP_default_properties_is_fips_enabled(ptr noundef null) #25
  %tobool.not.not = icmp eq i32 %call1, 0
  %arrayidx.i = getelementptr inbounds i8, ptr %0, i64 24
  %shl.i = select i1 %tobool.not.not, i64 0, i64 4294967296
  store i64 %shl.i, ptr %arrayidx.i, align 8
  tail call void @uv_mutex_unlock(ptr noundef nonnull @_ZN4node6cryptoL10fips_mutexE) #25
  tail call void @uv_mutex_unlock(ptr noundef nonnull @_ZN4node11per_process17cli_options_mutexE) #25
  ret void
}